target datalayout = "e-m:e-p270:32:32-p271:32:32-p272:64:64-i64:64-i128:128-f80:128-n8:16:32:64-S128"
target triple = "x86_64-pc-linux-gnu"

%struct._ct_dissector_info = type { ptr }
%struct._packet_info = type { ptr, ptr, i32, i32, %struct.nstime_t, %struct.nstime_t, %struct.nstime_t, i32, ptr, ptr, ptr, ptr, %struct._address, %struct._address, %struct._address, %struct._address, %struct._address, %struct._address, i32, ptr, i32, %struct.anon, i32, i32, i32, i32, ptr, i32, ptr, ptr, i16, i16, i32, i32, i16, i32, i32, ptr, ptr, ptr, i8, i8, i16, i16, i16, i32, i16, i16, ptr, ptr, ptr, ptr, ptr, i32 }
%struct.nstime_t = type { i64, i32 }
%struct._address = type { i32, i32, ptr, ptr }
%struct.anon = type { i8, [3 x i8] }
%struct._conversation_hash_t = type { ptr, ptr, ptr, i32 }
%struct._fc_hdr = type { %struct._address, %struct._address, i32, i8, i16, i16, i16, i8, i8, i16, ptr, i32 }
%struct._frame_data = type { i32, i32, i32, i32, i64, ptr, ptr, ptr, i16, i16, %struct.nstime_t, %struct.nstime_t, i32, i32, i8 }

@fc_ct_dissector_info = internal global %struct._ct_dissector_info { ptr @fc_conv_get_filter_type }, align 8

; Function Attrs: nounwind uwtable
define internal i32 @fc_conversation_packet(ptr noundef %0, ptr noundef %1, ptr noundef %2, ptr noundef %3, i32 noundef %4) #0 {
  %6 = alloca ptr, align 8
  %7 = alloca ptr, align 8
  %8 = alloca ptr, align 8
  %9 = alloca ptr, align 8
  %10 = alloca i32, align 4
  %11 = alloca ptr, align 8
  %12 = alloca ptr, align 8
  store ptr %0, ptr %6, align 8
  store ptr %1, ptr %7, align 8
  store ptr %2, ptr %8, align 8
  store ptr %3, ptr %9, align 8
  store i32 %4, ptr %10, align 4
  %13 = load ptr, ptr %6, align 8
  store ptr %13, ptr %11, align 8
  %14 = load i32, ptr %10, align 4
  %15 = load ptr, ptr %11, align 8
  %16 = getelementptr inbounds %struct._conversation_hash_t, ptr %15, i32 0, i32 3
  store i32 %14, ptr %16, align 8
  %17 = load ptr, ptr %9, align 8
  store ptr %17, ptr %12, align 8
  %18 = load ptr, ptr %11, align 8
  %19 = load ptr, ptr %12, align 8
  %20 = getelementptr inbounds %struct._fc_hdr, ptr %19, i32 0, i32 0
  %21 = load ptr, ptr %12, align 8
  %22 = getelementptr inbounds %struct._fc_hdr, ptr %21, i32 0, i32 1
  %23 = load ptr, ptr %7, align 8
  %24 = getelementptr inbounds %struct._packet_info, ptr %23, i32 0, i32 8
  %25 = load ptr, ptr %24, align 8
  %26 = getelementptr inbounds %struct._frame_data, ptr %25, i32 0, i32 1
  %27 = load i32, ptr %26, align 4
  %28 = load ptr, ptr %7, align 8
  %29 = getelementptr inbounds %struct._packet_info, ptr %28, i32 0, i32 5
  %30 = load ptr, ptr %7, align 8
  %31 = getelementptr inbounds %struct._packet_info, ptr %30, i32 0, i32 4
  call void @add_conversation_table_data(ptr noundef %18, ptr noundef %20, ptr noundef %22, i32 noundef 0, i32 noundef 0, i32 noundef 1, i32 noundef %27, ptr noundef %29, ptr noundef %31, ptr noundef @fc_ct_dissector_info, i32 noundef 0)
  ret i32 1
}