; Function Attrs: nounwind uwtable
define internal noundef i32 @fc_conversation_packet(ptr noundef initializes((24, 28)) %0, ptr noundef %1, ptr readnone captures(none) %2, ptr noundef %3, i32 noundef %4) #0 {
  %6 = getelementptr inbounds nuw i8, ptr %0, i64 24
  store i32 %4, ptr %6, align 8
  %7 = getelementptr inbounds nuw i8, ptr %3, i64 24
  %8 = getelementptr inbounds nuw i8, ptr %1, i64 80
  %9 = load ptr, ptr %8, align 8
  %10 = getelementptr inbounds nuw i8, ptr %9, i64 4
  %11 = load i32, ptr %10, align 4
  %12 = getelementptr inbounds nuw i8, ptr %1, i64 40
  %13 = getelementptr inbounds nuw i8, ptr %1, i64 24
  tail call void @add_conversation_table_data(ptr noundef %0, ptr noundef %3, ptr noundef nonnull %7, i32 noundef 0, i32 noundef 0, i32 noundef 1, i32 noundef %11, ptr noundef nonnull %12, ptr noundef nonnull %13, ptr noundef nonnull @fc_ct_dissector_info, i32 noundef 0) #4
  ret i32 1
}